target datalayout = "e-m:e-p270:32:32-p271:32:32-p272:64:64-i64:64-i128:128-f80:128-n8:16:32:64-S128"
target triple = "x86_64-pc-linux-gnu"

%struct.config_bool = type { %struct.config_generic, ptr, i8, ptr, ptr, ptr, i8, ptr }
%struct.config_generic = type { ptr, i32, i32, ptr, ptr, i32, i32, i32, i32, i32, i32, i32, i32, i32, ptr, ptr, %struct.dlist_node, %struct.slist_node, %struct.slist_node, ptr, ptr, i32 }
%struct.dlist_node = type { ptr, ptr }
%struct.slist_node = type { ptr }
%struct.config_int = type { %struct.config_generic, ptr, i32, i32, i32, ptr, ptr, ptr, i32, ptr }
%struct.config_real = type { %struct.config_generic, ptr, double, double, double, ptr, ptr, ptr, double, ptr }
%struct.config_string = type { %struct.config_generic, ptr, ptr, ptr, ptr, ptr, ptr, ptr }
%struct.config_enum = type { %struct.config_generic, ptr, i32, ptr, ptr, ptr, ptr, i32, ptr }
%struct.config_enum_entry = type { ptr, i32, i8 }

@.str.3 = private unnamed_addr constant [6 x i8] c"guc.c\00", align 1
@.str.8 = private unnamed_addr constant [1 x i8] zeroinitializer, align 1
@.str.55 = private unnamed_addr constant [37 x i8] c"could not find enum option %d for %s\00", align 1
@__func__.config_enum_lookup_by_value = private unnamed_addr constant [28 x i8] c"config_enum_lookup_by_value\00", align 1
@.str.72 = private unnamed_addr constant [3 x i8] c"on\00", align 1
@.str.73 = private unnamed_addr constant [4 x i8] c"off\00", align 1
@.str.90 = private unnamed_addr constant [6 x i8] c"%ld%s\00", align 1
@.str.91 = private unnamed_addr constant [5 x i8] c"%g%s\00", align 1
@.str.92 = private unnamed_addr constant [4 x i8] c"???\00", align 1

; Function Attrs: nounwind uwtable
define dso_local ptr @config_enum_lookup_by_value(ptr noundef %0, i32 noundef %1) #0 {
  %3 = alloca ptr, align 8
  %4 = alloca ptr, align 8
  %5 = alloca i32, align 4
  %6 = alloca ptr, align 8
  %7 = alloca i32, align 4
  store ptr %0, ptr %4, align 8
  store i32 %1, ptr %5, align 4
  call void @llvm.lifetime.start.p0(i64 8, ptr %6) #16
  %8 = load ptr, ptr %4, align 8
  %9 = getelementptr inbounds nuw %struct.config_enum, ptr %8, i32 0, i32 3
  %10 = load ptr, ptr %9, align 8
  store ptr %10, ptr %6, align 8
  br label %11

11:                                               ; preds = %32, %2
  %12 = load ptr, ptr %6, align 8
  %13 = icmp ne ptr %12, null
  br i1 %13, label %14, label %19

14:                                               ; preds = %11
  %15 = load ptr, ptr %6, align 8
  %16 = getelementptr inbounds nuw %struct.config_enum_entry, ptr %15, i32 0, i32 0
  %17 = load ptr, ptr %16, align 8
  %18 = icmp ne ptr %17, null
  br label %19

19:                                               ; preds = %14, %11
  %20 = phi i1 [ false, %11 ], [ %18, %14 ]
  br i1 %20, label %21, label %35

21:                                               ; preds = %19
  %22 = load ptr, ptr %6, align 8
  %23 = getelementptr inbounds nuw %struct.config_enum_entry, ptr %22, i32 0, i32 1
  %24 = load i32, ptr %23, align 8
  %25 = load i32, ptr %5, align 4
  %26 = icmp eq i32 %24, %25
  br i1 %26, label %27, label %31

27:                                               ; preds = %21
  %28 = load ptr, ptr %6, align 8
  %29 = getelementptr inbounds nuw %struct.config_enum_entry, ptr %28, i32 0, i32 0
  %30 = load ptr, ptr %29, align 8
  store ptr %30, ptr %3, align 8
  store i32 1, ptr %7, align 4
  br label %51

31:                                               ; preds = %21
  br label %32

32:                                               ; preds = %31
  %33 = load ptr, ptr %6, align 8
  %34 = getelementptr inbounds nuw %struct.config_enum_entry, ptr %33, i32 1
  store ptr %34, ptr %6, align 8
  br label %11, !llvm.loop !43

35:                                               ; preds = %19
  br label %36

36:                                               ; preds = %35
  br i1 true, label %37, label %39

37:                                               ; preds = %36
  %38 = call zeroext i1 @errstart_cold(i32 noundef 21, ptr noundef null) #18
  br i1 %38, label %41, label %48

39:                                               ; preds = %36
  %40 = call zeroext i1 @errstart(i32 noundef 21, ptr noundef null)
  br i1 %40, label %41, label %48

41:                                               ; preds = %39, %37
  %42 = load i32, ptr %5, align 4
  %43 = load ptr, ptr %4, align 8
  %44 = getelementptr inbounds nuw %struct.config_enum, ptr %43, i32 0, i32 0
  %45 = getelementptr inbounds nuw %struct.config_generic, ptr %44, i32 0, i32 0
  %46 = load ptr, ptr %45, align 8
  %47 = call i32 (ptr, ...) @errmsg_internal(ptr noundef @.str.55, i32 noundef %42, ptr noundef %46)
  call void @errfinish(ptr noundef @.str.3, i32 noundef 3034, ptr noundef @__func__.config_enum_lookup_by_value)
  br label %48

48:                                               ; preds = %41, %39, %37
  unreachable

49:                                               ; No predecessors!
  br label %50

50:                                               ; preds = %49
  store ptr null, ptr %3, align 8
  store i32 1, ptr %7, align 4
  br label %51

51:                                               ; preds = %50, %27
  call void @llvm.lifetime.end.p0(i64 8, ptr %6) #16
  %52 = load ptr, ptr %3, align 8
  ret ptr %52
}

; Function Attrs: nounwind uwtable
define dso_local ptr @ShowGUCOption(ptr noundef %0, i1 noundef zeroext %1) #0 {
  %3 = alloca ptr, align 8
  %4 = alloca i8, align 1
  %5 = alloca [256 x i8], align 16
  %6 = alloca ptr, align 8
  %7 = alloca ptr, align 8
  %8 = alloca ptr, align 8
  %9 = alloca i64, align 8
  %10 = alloca ptr, align 8
  %11 = alloca ptr, align 8
  %12 = alloca double, align 8
  %13 = alloca ptr, align 8
  %14 = alloca ptr, align 8
  %15 = alloca ptr, align 8
  store ptr %0, ptr %3, align 8
  %16 = zext i1 %1 to i8
  store i8 %16, ptr %4, align 1
  call void @llvm.lifetime.start.p0(i64 256, ptr %5) #16
  call void @llvm.lifetime.start.p0(i64 8, ptr %6) #16
  %17 = load ptr, ptr %3, align 8
  %18 = getelementptr inbounds nuw %struct.config_generic, ptr %17, i32 0, i32 6
  %19 = load i32, ptr %18, align 4
  switch i32 %19, label %174 [
    i32 0, label %20
    i32 1, label %39
    i32 2, label %81
    i32 3, label %122
    i32 4, label %155
  ]

20:                                               ; preds = %2
  call void @llvm.lifetime.start.p0(i64 8, ptr %7) #16
  %21 = load ptr, ptr %3, align 8
  store ptr %21, ptr %7, align 8
  %22 = load ptr, ptr %7, align 8
  %23 = getelementptr inbounds nuw %struct.config_bool, ptr %22, i32 0, i32 5
  %24 = load ptr, ptr %23, align 8
  %25 = icmp ne ptr %24, null
  br i1 %25, label %26, label %31

26:                                               ; preds = %20
  %27 = load ptr, ptr %7, align 8
  %28 = getelementptr inbounds nuw %struct.config_bool, ptr %27, i32 0, i32 5
  %29 = load ptr, ptr %28, align 8
  %30 = call ptr %29()
  store ptr %30, ptr %6, align 8
  br label %38

31:                                               ; preds = %20
  %32 = load ptr, ptr %7, align 8
  %33 = getelementptr inbounds nuw %struct.config_bool, ptr %32, i32 0, i32 1
  %34 = load ptr, ptr %33, align 8
  %35 = load i8, ptr %34, align 1, !range !4, !noundef !5
  %36 = trunc i8 %35 to i1
  %37 = select i1 %36, ptr @.str.72, ptr @.str.73
  store ptr %37, ptr %6, align 8
  br label %38

38:                                               ; preds = %31, %26
  call void @llvm.lifetime.end.p0(i64 8, ptr %7) #16
  br label %175

39:                                               ; preds = %2
  call void @llvm.lifetime.start.p0(i64 8, ptr %8) #16
  %40 = load ptr, ptr %3, align 8
  store ptr %40, ptr %8, align 8
  %41 = load ptr, ptr %8, align 8
  %42 = getelementptr inbounds nuw %struct.config_int, ptr %41, i32 0, i32 7
  %43 = load ptr, ptr %42, align 8
  %44 = icmp ne ptr %43, null
  br i1 %44, label %45, label %50

45:                                               ; preds = %39
  %46 = load ptr, ptr %8, align 8
  %47 = getelementptr inbounds nuw %struct.config_int, ptr %46, i32 0, i32 7
  %48 = load ptr, ptr %47, align 8
  %49 = call ptr %48()
  store ptr %49, ptr %6, align 8
  br label %80

50:                                               ; preds = %39
  call void @llvm.lifetime.start.p0(i64 8, ptr %9) #16
  %51 = load ptr, ptr %8, align 8
  %52 = getelementptr inbounds nuw %struct.config_int, ptr %51, i32 0, i32 1
  %53 = load ptr, ptr %52, align 8
  %54 = load i32, ptr %53, align 4
  %55 = sext i32 %54 to i64
  store i64 %55, ptr %9, align 8
  call void @llvm.lifetime.start.p0(i64 8, ptr %10) #16
  %56 = load i8, ptr %4, align 1, !range !4, !noundef !5
  %57 = trunc i8 %56 to i1
  br i1 %57, label %58, label %73

58:                                               ; preds = %50
  %59 = load i64, ptr %9, align 8
  %60 = icmp sgt i64 %59, 0
  br i1 %60, label %61, label %73

61:                                               ; preds = %58
  %62 = load ptr, ptr %3, align 8
  %63 = getelementptr inbounds nuw %struct.config_generic, ptr %62, i32 0, i32 5
  %64 = load i32, ptr %63, align 8
  %65 = and i32 %64, 2130706432
  %66 = icmp ne i32 %65, 0
  br i1 %66, label %67, label %73

67:                                               ; preds = %61
  %68 = load i64, ptr %9, align 8
  %69 = load ptr, ptr %3, align 8
  %70 = getelementptr inbounds nuw %struct.config_generic, ptr %69, i32 0, i32 5
  %71 = load i32, ptr %70, align 8
  %72 = and i32 %71, 2130706432
  call void @convert_int_from_base_unit(i64 noundef %68, i32 noundef %72, ptr noundef %9, ptr noundef %10)
  br label %74

73:                                               ; preds = %61, %58, %50
  store ptr @.str.8, ptr %10, align 8
  br label %74

74:                                               ; preds = %73, %67
  %75 = getelementptr inbounds [256 x i8], ptr %5, i64 0, i64 0
  %76 = load i64, ptr %9, align 8
  %77 = load ptr, ptr %10, align 8
  %78 = call i32 (ptr, i64, ptr, ...) @pg_snprintf(ptr noundef %75, i64 noundef 256, ptr noundef @.str.90, i64 noundef %76, ptr noundef %77)
  %79 = getelementptr inbounds [256 x i8], ptr %5, i64 0, i64 0
  store ptr %79, ptr %6, align 8
  call void @llvm.lifetime.end.p0(i64 8, ptr %10) #16
  call void @llvm.lifetime.end.p0(i64 8, ptr %9) #16
  br label %80

80:                                               ; preds = %74, %45
  call void @llvm.lifetime.end.p0(i64 8, ptr %8) #16
  br label %175

81:                                               ; preds = %2
  call void @llvm.lifetime.start.p0(i64 8, ptr %11) #16
  %82 = load ptr, ptr %3, align 8
  store ptr %82, ptr %11, align 8
  %83 = load ptr, ptr %11, align 8
  %84 = getelementptr inbounds nuw %struct.config_real, ptr %83, i32 0, i32 7
  %85 = load ptr, ptr %84, align 8
  %86 = icmp ne ptr %85, null
  br i1 %86, label %87, label %92

87:                                               ; preds = %81
  %88 = load ptr, ptr %11, align 8
  %89 = getelementptr inbounds nuw %struct.config_real, ptr %88, i32 0, i32 7
  %90 = load ptr, ptr %89, align 8
  %91 = call ptr %90()
  store ptr %91, ptr %6, align 8
  br label %121

92:                                               ; preds = %81
  call void @llvm.lifetime.start.p0(i64 8, ptr %12) #16
  %93 = load ptr, ptr %11, align 8
  %94 = getelementptr inbounds nuw %struct.config_real, ptr %93, i32 0, i32 1
  %95 = load ptr, ptr %94, align 8
  %96 = load double, ptr %95, align 8
  store double %96, ptr %12, align 8
  call void @llvm.lifetime.start.p0(i64 8, ptr %13) #16
  %97 = load i8, ptr %4, align 1, !range !4, !noundef !5
  %98 = trunc i8 %97 to i1
  br i1 %98, label %99, label %114

99:                                               ; preds = %92
  %100 = load double, ptr %12, align 8
  %101 = fcmp ogt double %100, 0.000000e+00
  br i1 %101, label %102, label %114

102:                                              ; preds = %99
  %103 = load ptr, ptr %3, align 8
  %104 = getelementptr inbounds nuw %struct.config_generic, ptr %103, i32 0, i32 5
  %105 = load i32, ptr %104, align 8
  %106 = and i32 %105, 2130706432
  %107 = icmp ne i32 %106, 0
  br i1 %107, label %108, label %114

108:                                              ; preds = %102
  %109 = load double, ptr %12, align 8
  %110 = load ptr, ptr %3, align 8
  %111 = getelementptr inbounds nuw %struct.config_generic, ptr %110, i32 0, i32 5
  %112 = load i32, ptr %111, align 8
  %113 = and i32 %112, 2130706432
  call void @convert_real_from_base_unit(double noundef %109, i32 noundef %113, ptr noundef %12, ptr noundef %13)
  br label %115

114:                                              ; preds = %102, %99, %92
  store ptr @.str.8, ptr %13, align 8
  br label %115

115:                                              ; preds = %114, %108
  %116 = getelementptr inbounds [256 x i8], ptr %5, i64 0, i64 0
  %117 = load double, ptr %12, align 8
  %118 = load ptr, ptr %13, align 8
  %119 = call i32 (ptr, i64, ptr, ...) @pg_snprintf(ptr noundef %116, i64 noundef 256, ptr noundef @.str.91, double noundef %117, ptr noundef %118)
  %120 = getelementptr inbounds [256 x i8], ptr %5, i64 0, i64 0
  store ptr %120, ptr %6, align 8
  call void @llvm.lifetime.end.p0(i64 8, ptr %13) #16
  call void @llvm.lifetime.end.p0(i64 8, ptr %12) #16
  br label %121

121:                                              ; preds = %115, %87
  call void @llvm.lifetime.end.p0(i64 8, ptr %11) #16
  br label %175

122:                                              ; preds = %2
  call void @llvm.lifetime.start.p0(i64 8, ptr %14) #16
  %123 = load ptr, ptr %3, align 8
  store ptr %123, ptr %14, align 8
  %124 = load ptr, ptr %14, align 8
  %125 = getelementptr inbounds nuw %struct.config_string, ptr %124, i32 0, i32 5
  %126 = load ptr, ptr %125, align 8
  %127 = icmp ne ptr %126, null
  br i1 %127, label %128, label %133

128:                                              ; preds = %122
  %129 = load ptr, ptr %14, align 8
  %130 = getelementptr inbounds nuw %struct.config_string, ptr %129, i32 0, i32 5
  %131 = load ptr, ptr %130, align 8
  %132 = call ptr %131()
  store ptr %132, ptr %6, align 8
  br label %154

133:                                              ; preds = %122
  %134 = load ptr, ptr %14, align 8
  %135 = getelementptr inbounds nuw %struct.config_string, ptr %134, i32 0, i32 1
  %136 = load ptr, ptr %135, align 8
  %137 = load ptr, ptr %136, align 8
  %138 = icmp ne ptr %137, null
  br i1 %138, label %139, label %152

139:                                              ; preds = %133
  %140 = load ptr, ptr %14, align 8
  %141 = getelementptr inbounds nuw %struct.config_string, ptr %140, i32 0, i32 1
  %142 = load ptr, ptr %141, align 8
  %143 = load ptr, ptr %142, align 8
  %144 = load i8, ptr %143, align 1
  %145 = sext i8 %144 to i32
  %146 = icmp ne i32 %145, 0
  br i1 %146, label %147, label %152

147:                                              ; preds = %139
  %148 = load ptr, ptr %14, align 8
  %149 = getelementptr inbounds nuw %struct.config_string, ptr %148, i32 0, i32 1
  %150 = load ptr, ptr %149, align 8
  %151 = load ptr, ptr %150, align 8
  store ptr %151, ptr %6, align 8
  br label %153

152:                                              ; preds = %139, %133
  store ptr @.str.8, ptr %6, align 8
  br label %153

153:                                              ; preds = %152, %147
  br label %154

154:                                              ; preds = %153, %128
  call void @llvm.lifetime.end.p0(i64 8, ptr %14) #16
  br label %175

155:                                              ; preds = %2
  call void @llvm.lifetime.start.p0(i64 8, ptr %15) #16
  %156 = load ptr, ptr %3, align 8
  store ptr %156, ptr %15, align 8
  %157 = load ptr, ptr %15, align 8
  %158 = getelementptr inbounds nuw %struct.config_enum, ptr %157, i32 0, i32 6
  %159 = load ptr, ptr %158, align 8
  %160 = icmp ne ptr %159, null
  br i1 %160, label %161, label %166

161:                                              ; preds = %155
  %162 = load ptr, ptr %15, align 8
  %163 = getelementptr inbounds nuw %struct.config_enum, ptr %162, i32 0, i32 6
  %164 = load ptr, ptr %163, align 8
  %165 = call ptr %164()
  store ptr %165, ptr %6, align 8
  br label %173

166:                                              ; preds = %155
  %167 = load ptr, ptr %15, align 8
  %168 = load ptr, ptr %15, align 8
  %169 = getelementptr inbounds nuw %struct.config_enum, ptr %168, i32 0, i32 1
  %170 = load ptr, ptr %169, align 8
  %171 = load i32, ptr %170, align 4
  %172 = call ptr @config_enum_lookup_by_value(ptr noundef %167, i32 noundef %171)
  store ptr %172, ptr %6, align 8
  br label %173

173:                                              ; preds = %166, %161
  call void @llvm.lifetime.end.p0(i64 8, ptr %15) #16
  br label %175

174:                                              ; preds = %2
  store ptr @.str.92, ptr %6, align 8
  br label %175

175:                                              ; preds = %174, %173, %154, %121, %80, %38
  %176 = load ptr, ptr %6, align 8
  %177 = call ptr @pstrdup(ptr noundef %176)
  call void @llvm.lifetime.end.p0(i64 8, ptr %6) #16
  call void @llvm.lifetime.end.p0(i64 256, ptr %5) #16
  ret ptr %177
}