; Function Attrs: nounwind uwtable
define dso_local ptr @ShowGUCOption(ptr noundef readonly captures(none) %0, i1 noundef zeroext %1) local_unnamed_addr #0 {
  %3 = alloca [256 x i8], align 16
  %4 = alloca i64, align 8
  %5 = alloca ptr, align 8
  %6 = alloca double, align 8
  %7 = alloca ptr, align 8
  call void @llvm.lifetime.start.p0(i64 256, ptr nonnull %3) #29
  %8 = getelementptr inbounds nuw i8, ptr %0, i64 36
  %9 = load i32, ptr %8, align 4
  switch i32 %9, label %config_enum_lookup_by_value.exit [
    i32 0, label %10
    i32 1, label %21
    i32 2, label %41
    i32 3, label %60
    i32 4, label %72
  ]

10:                                               ; preds = %2
  %11 = getelementptr inbounds nuw i8, ptr %0, i64 176
  %12 = load ptr, ptr %11, align 8
  %.not50 = icmp eq ptr %12, null
  br i1 %.not50, label %15, label %13

13:                                               ; preds = %10
  %14 = tail call ptr %12() #29
  br label %config_enum_lookup_by_value.exit

15:                                               ; preds = %10
  %16 = getelementptr inbounds nuw i8, ptr %0, i64 144
  %17 = load ptr, ptr %16, align 8
  %18 = load i8, ptr %17, align 1, !range !4, !noundef !5
  %19 = trunc nuw i8 %18 to i1
  %20 = select i1 %19, ptr @.str.72, ptr @.str.73
  br label %config_enum_lookup_by_value.exit

21:                                               ; preds = %2
  %22 = getelementptr inbounds nuw i8, ptr %0, i64 184
  %23 = load ptr, ptr %22, align 8
  %.not48 = icmp eq ptr %23, null
  br i1 %.not48, label %26, label %24

24:                                               ; preds = %21
  %25 = tail call ptr %23() #29
  br label %config_enum_lookup_by_value.exit

26:                                               ; preds = %21
  call void @llvm.lifetime.start.p0(i64 8, ptr nonnull %4) #29
  %27 = getelementptr inbounds nuw i8, ptr %0, i64 144
  %28 = load ptr, ptr %27, align 8
  %29 = load i32, ptr %28, align 4
  %30 = sext i32 %29 to i64
  store i64 %30, ptr %4, align 8
  call void @llvm.lifetime.start.p0(i64 8, ptr nonnull %5) #29
  %31 = icmp sgt i32 %29, 0
  %or.cond = select i1 %1, i1 %31, i1 false
  br i1 %or.cond, label %32, label %37

32:                                               ; preds = %26
  %33 = getelementptr inbounds nuw i8, ptr %0, i64 32
  %34 = load i32, ptr %33, align 8
  %35 = and i32 %34, 2130706432
  %.not49 = icmp eq i32 %35, 0
  br i1 %.not49, label %37, label %36

36:                                               ; preds = %32
  call fastcc void @convert_int_from_base_unit(i64 noundef %30, i32 noundef %35, ptr noundef %4, ptr noundef %5)
  %.pre56 = load i64, ptr %4, align 8
  %.pre57 = load ptr, ptr %5, align 8
  br label %37

37:                                               ; preds = %26, %32, %36
  %38 = phi ptr [ %.pre57, %36 ], [ @.str.8, %32 ], [ @.str.8, %26 ]
  %39 = phi i64 [ %.pre56, %36 ], [ %30, %32 ], [ %30, %26 ]
  %40 = call i32 (ptr, i64, ptr, ...) @pg_snprintf(ptr noundef nonnull %3, i64 noundef 256, ptr noundef nonnull @.str.90, i64 noundef %39, ptr noundef %38) #29
  call void @llvm.lifetime.end.p0(i64 8, ptr nonnull %5) #29
  call void @llvm.lifetime.end.p0(i64 8, ptr nonnull %4) #29
  br label %config_enum_lookup_by_value.exit

41:                                               ; preds = %2
  %42 = getelementptr inbounds nuw i8, ptr %0, i64 192
  %43 = load ptr, ptr %42, align 8
  %.not46 = icmp eq ptr %43, null
  br i1 %.not46, label %46, label %44

44:                                               ; preds = %41
  %45 = tail call ptr %43() #29
  br label %config_enum_lookup_by_value.exit

46:                                               ; preds = %41
  call void @llvm.lifetime.start.p0(i64 8, ptr nonnull %6) #29
  %47 = getelementptr inbounds nuw i8, ptr %0, i64 144
  %48 = load ptr, ptr %47, align 8
  %49 = load double, ptr %48, align 8
  store double %49, ptr %6, align 8
  call void @llvm.lifetime.start.p0(i64 8, ptr nonnull %7) #29
  %50 = fcmp ogt double %49, 0.000000e+00
  %or.cond3 = select i1 %1, i1 %50, i1 false
  br i1 %or.cond3, label %51, label %56

51:                                               ; preds = %46
  %52 = getelementptr inbounds nuw i8, ptr %0, i64 32
  %53 = load i32, ptr %52, align 8
  %54 = and i32 %53, 2130706432
  %.not47 = icmp eq i32 %54, 0
  br i1 %.not47, label %56, label %55

55:                                               ; preds = %51
  call fastcc void @convert_real_from_base_unit(double noundef %49, i32 noundef %54, ptr noundef %6, ptr noundef %7)
  %.pre = load double, ptr %6, align 8
  %.pre55 = load ptr, ptr %7, align 8
  br label %56

56:                                               ; preds = %46, %51, %55
  %57 = phi ptr [ %.pre55, %55 ], [ @.str.8, %51 ], [ @.str.8, %46 ]
  %58 = phi double [ %.pre, %55 ], [ %49, %51 ], [ %49, %46 ]
  %59 = call i32 (ptr, i64, ptr, ...) @pg_snprintf(ptr noundef nonnull %3, i64 noundef 256, ptr noundef nonnull @.str.91, double noundef %58, ptr noundef %57) #29
  call void @llvm.lifetime.end.p0(i64 8, ptr nonnull %7) #29
  call void @llvm.lifetime.end.p0(i64 8, ptr nonnull %6) #29
  br label %config_enum_lookup_by_value.exit

60:                                               ; preds = %2
  %61 = getelementptr inbounds nuw i8, ptr %0, i64 176
  %62 = load ptr, ptr %61, align 8
  %.not43 = icmp eq ptr %62, null
  br i1 %.not43, label %65, label %63

63:                                               ; preds = %60
  %64 = tail call ptr %62() #29
  br label %config_enum_lookup_by_value.exit

65:                                               ; preds = %60
  %66 = getelementptr inbounds nuw i8, ptr %0, i64 144
  %67 = load ptr, ptr %66, align 8
  %68 = load ptr, ptr %67, align 8
  %.not44 = icmp eq ptr %68, null
  br i1 %.not44, label %71, label %69

69:                                               ; preds = %65
  %70 = load i8, ptr %68, align 1
  %.not45 = icmp eq i8 %70, 0
  br i1 %.not45, label %71, label %config_enum_lookup_by_value.exit

71:                                               ; preds = %69, %65
  br label %config_enum_lookup_by_value.exit

72:                                               ; preds = %2
  %73 = getelementptr inbounds nuw i8, ptr %0, i64 184
  %74 = load ptr, ptr %73, align 8
  %.not = icmp eq ptr %74, null
  br i1 %.not, label %77, label %75

75:                                               ; preds = %72
  %76 = tail call ptr %74() #29
  br label %config_enum_lookup_by_value.exit

77:                                               ; preds = %72
  %78 = getelementptr inbounds nuw i8, ptr %0, i64 144
  %79 = load ptr, ptr %78, align 8
  %80 = load i32, ptr %79, align 4
  %81 = getelementptr inbounds nuw i8, ptr %0, i64 160
  %82 = load ptr, ptr %81, align 8
  %.not11.i = icmp eq ptr %82, null
  br i1 %.not11.i, label %.critedge.i, label %.lr.ph.i.preheader

.lr.ph.i.preheader:                               ; preds = %77
  %83 = load ptr, ptr %82, align 8
  %.not10.i52 = icmp eq ptr %83, null
  br i1 %.not10.i52, label %.critedge.i, label %.lr.ph.preheader

.lr.ph.preheader:                                 ; preds = %.lr.ph.i.preheader
  %84 = getelementptr inbounds nuw i8, ptr %82, i64 8
  %85 = load i32, ptr %84, align 8
  %86 = icmp eq i32 %85, %80
  br i1 %86, label %config_enum_lookup_by_value.exit, label %.lr.ph.i

.lr.ph.i:                                         ; preds = %.lr.ph.preheader, %.lr.ph
  %.012.i5360 = phi ptr [ %87, %.lr.ph ], [ %82, %.lr.ph.preheader ]
  %87 = getelementptr inbounds nuw i8, ptr %.012.i5360, i64 16
  %88 = load ptr, ptr %87, align 8
  %.not10.i = icmp eq ptr %88, null
  br i1 %.not10.i, label %.critedge.i, label %.lr.ph

.lr.ph:                                           ; preds = %.lr.ph.i
  %89 = getelementptr inbounds nuw i8, ptr %.012.i5360, i64 24
  %90 = load i32, ptr %89, align 8
  %91 = icmp eq i32 %90, %80
  br i1 %91, label %config_enum_lookup_by_value.exit, label %.lr.ph.i

.critedge.i:                                      ; preds = %.lr.ph.i, %.lr.ph.i.preheader, %77
  %92 = tail call zeroext i1 @errstart_cold(i32 noundef 21, ptr noundef null) #31
  tail call void @llvm.assume(i1 %92)
  %93 = load ptr, ptr %0, align 8
  %94 = tail call i32 (ptr, ...) @errmsg_internal(ptr noundef nonnull @.str.55, i32 noundef %80, ptr noundef %93) #29
  tail call void @errfinish(ptr noundef nonnull @.str.3, i32 noundef 3034, ptr noundef nonnull @__func__.config_enum_lookup_by_value) #29
  unreachable

config_enum_lookup_by_value.exit:                 ; preds = %.lr.ph, %.lr.ph.preheader, %2, %75, %63, %71, %69, %44, %56, %24, %37, %13, %15
  %.1 = phi ptr [ %14, %13 ], [ %20, %15 ], [ %25, %24 ], [ %3, %37 ], [ %45, %44 ], [ %3, %56 ], [ %64, %63 ], [ @.str.8, %71 ], [ %68, %69 ], [ %76, %75 ], [ @.str.92, %2 ], [ %83, %.lr.ph.preheader ], [ %88, %.lr.ph ]
  %95 = call ptr @pstrdup(ptr noundef %.1) #29
  call void @llvm.lifetime.end.p0(i64 256, ptr nonnull %3) #29
  ret ptr %95
}